
decrypt.out:     file format elf64-x86-64


Disassembly of section .init:

0000000000001000 <_init>:
    1000:	f3 0f 1e fa          	endbr64
    1004:	48 83 ec 08          	sub    $0x8,%rsp
    1008:	48 8b 05 d9 2f 00 00 	mov    0x2fd9(%rip),%rax        # 3fe8 <__gmon_start__@Base>
    100f:	48 85 c0             	test   %rax,%rax
    1012:	74 02                	je     1016 <_init+0x16>
    1014:	ff d0                	call   *%rax
    1016:	48 83 c4 08          	add    $0x8,%rsp
    101a:	c3                   	ret

Disassembly of section .plt:

0000000000001020 <.plt>:
    1020:	ff 35 9a 2f 00 00    	push   0x2f9a(%rip)        # 3fc0 <_GLOBAL_OFFSET_TABLE_+0x8>
    1026:	ff 25 9c 2f 00 00    	jmp    *0x2f9c(%rip)        # 3fc8 <_GLOBAL_OFFSET_TABLE_+0x10>
    102c:	0f 1f 40 00          	nopl   0x0(%rax)
    1030:	f3 0f 1e fa          	endbr64
    1034:	68 00 00 00 00       	push   $0x0
    1039:	e9 e2 ff ff ff       	jmp    1020 <_init+0x20>
    103e:	66 90                	xchg   %ax,%ax

Disassembly of section .plt.got:

0000000000001040 <__cxa_finalize@plt>:
    1040:	f3 0f 1e fa          	endbr64
    1044:	ff 25 ae 2f 00 00    	jmp    *0x2fae(%rip)        # 3ff8 <__cxa_finalize@GLIBC_2.2.5>
    104a:	66 0f 1f 44 00 00    	nopw   0x0(%rax,%rax,1)

Disassembly of section .plt.sec:

0000000000001050 <puts@plt>:
    1050:	f3 0f 1e fa          	endbr64
    1054:	ff 25 76 2f 00 00    	jmp    *0x2f76(%rip)        # 3fd0 <puts@GLIBC_2.2.5>
    105a:	66 0f 1f 44 00 00    	nopw   0x0(%rax,%rax,1)

Disassembly of section .text:

0000000000001060 <_start>:
    1060:	56                   	push   %rsi
    1061:	a0 03 60 b9 c4 75 62 	movabs 0x3c316275c4b96003,%al
    1068:	31 3c 
    106a:	61                   	(bad)
    106b:	2a ff                	sub    %bh,%bh
    106d:	fa                   	cli
    106e:	fc                   	cld
    106f:	08 df                	or     %bl,%bh
    1071:	af                   	scas   %es:(%rdi),%eax
    1072:	e2 d7                	loop   104b <__cxa_finalize@plt+0xb>
    1074:	e0 9c                	loopne 1012 <_init+0x12>
    1076:	e1 dd                	loope  1055 <puts@plt+0x5>
    1078:	c7                   	(bad)
    1079:	fc                   	cld
    107a:	2a fe                	sub    %dh,%bh
    107c:	99                   	cltd
    107d:	79 2b                	jns    10aa <deregister_tm_clones+0x1a>
    107f:	51                   	push   %rcx
    1080:	4a 03 b9 85 65 38 cd 	rex.WX add -0x32c79a7b(%rcx),%rdi
    1087:	72 43                	jb     10cc <register_tm_clones+0xc>
    1089:	7c f0                	jl     107b <_start+0x1b>
    108b:	8b 00                	mov    (%rax),%eax
    108d:	82                   	(bad)
    108e:	00                   	.byte 0
    108f:	45                   	rex.RB

0000000000001090 <deregister_tm_clones>:
    1090:	31 02                	xor    %eax,(%rdx)
    1092:	c4                   	(bad)
    1093:	59                   	pop    %rcx
    1094:	41 11 dc             	adc    %ebx,%r12d
    1097:	ab                   	stos   %eax,%es:(%rdi)
    1098:	9e                   	sahf
    1099:	dd a2 e9 8b 81 36    	frstor 0x36818be9(%rdx)
    109f:	bb 62 47 1b 36       	mov    $0x361b4762,%ebx
    10a4:	2d 46 18 67 83       	sub    $0x83671846,%eax
    10a9:	3e ec                	ds in  (%dx),%al
    10ab:	84 d6                	test   %dl,%dh
    10ad:	ba 6d 25 bc 63       	mov    $0x63bc256d,%edx
    10b2:	d7                   	xlat   %ds:(%rbx)
    10b3:	05 03 13 1f 71       	add    $0x711f1303,%eax
    10b8:	f1                   	int1
    10b9:	eb ce                	jmp    1089 <_start+0x29>
    10bb:	45                   	rex.RB
    10bc:	64 5b                	fs pop %rbx
    10be:	88 38                	mov    %bh,(%rax)

00000000000010c0 <register_tm_clones>:
    10c0:	bd 3f be 02 67       	mov    $0x6702be3f,%ebp
    10c5:	97                   	xchg   %eax,%edi
    10c6:	12 d4                	adc    %ah,%dl
    10c8:	1f                   	(bad)
    10c9:	a1 af 64 a8 10 3c d7 	movabs 0x20e3d73c10a864af,%eax
    10d0:	e3 20 
    10d2:	bf 16 3f 15 f3       	mov    $0xf3153f16,%edi
    10d7:	53                   	push   %rbx
    10d8:	bd ef df b9 8e       	mov    $0x8eb9dfef,%ebp
    10dd:	ef                   	out    %eax,(%dx)
    10de:	a3 13 65 27 2a b7 06 	movabs %eax,0xc72e06b72a276513
    10e5:	2e c7 
    10e7:	2c 82                	sub    $0x82,%al
    10e9:	06                   	(bad)
    10ea:	2c f2                	sub    $0xf2,%al
    10ec:	8b a9 45 57 08 30    	mov    0x30085745(%rcx),%ebp
    10f2:	d0 dc                	rcr    $1,%ah
    10f4:	d1 a8 3a 5a d0 26    	shrl   $1,0x26d05a3a(%rax)
    10fa:	13 ee                	adc    %esi,%ebp
    10fc:	4d ca b8 72          	rex.WRB lretq $0x72b8

0000000000001100 <__do_global_dtors_aux>:
    1100:	a7                   	cmpsl  %es:(%rdi),%ds:(%rsi)
    1101:	8d                   	lea    (bad),%ebx
    1102:	df 11                	fists  (%rcx)
    1104:	0b 68 c3             	or     -0x3d(%rax),%ebp
    1107:	0d 4d 40 fe f2       	or     $0xf2fe404d,%eax
    110c:	0b bd a4 45 6a fa    	or     -0x595ba5c(%rbp),%edi
    1112:	37                   	(bad)
    1113:	f7 80 52 35 d9 41 0c 	testl  $0xa07cd80c,0x41d93552(%rax)
    111a:	d8 7c a0 
    111d:	59                   	pop    %rcx
    111e:	cb                   	lret
    111f:	31 e9                	xor    %ebp,%ecx
    1121:	bd 68 b3 04 99       	mov    $0x9904b368,%ebp
    1126:	e7 7f                	out    %eax,$0x7f
    1128:	1e                   	(bad)
    1129:	10 f8                	adc    %bh,%al
    112b:	8a f6                	mov    %dh,%dh
    112d:	d2 e3                	shl    %cl,%bl
    112f:	57                   	push   %rdi
    1130:	71 58                	jno    118a <_fini+0x22>
    1132:	ca 8c 84             	lret   $0x848c
    1135:	0f 04                	(bad)
    1137:	53                   	push   %rbx
    1138:	a8 c1                	test   $0xc1,%al
    113a:	5b                   	pop    %rbx
    113b:	c5 83 83             	(bad)
    113e:	28                   	.byte 0x28
    113f:	14                   	.byte 0x14

0000000000001140 <frame_dummy>:
    1140:	16                   	(bad)
    1141:	50                   	push   %rax
    1142:	ac                   	lods   %ds:(%rsi),%al
    1143:	e5 d8                	in     $0xd8,%eax
    1145:	23 c8                	and    %eax,%ecx
    1147:	aa                   	stos   %al,%es:(%rdi)
    1148:	28                   	.byte 0x28

0000000000001149 <main>:
    1149:	84 3d af e1 9a 68    	test   %bh,0x689ae1af(%rip)        # 689af2fe <_end+0x689ab2e6>
    114f:	66 91                	xchg   %ax,%cx
    1151:	c5 da b6             	(bad)
    1154:	c9                   	leave
    1155:	05 e4 82 03 ba       	add    $0xba0382e4,%eax
    115a:	2b 55 f2             	sub    -0xe(%rbp),%edx
    115d:	05 87 9f 07 37       	add    $0x37079f87,%eax
    1162:	37                   	(bad)
    1163:	df                   	.byte 0xdf
    1164:	b3 1a                	mov    $0x1a,%bl
    1166:	d0                   	.byte 0xd0

Disassembly of section .fini:

0000000000001168 <_fini>:
    1168:	f3 0f 1e fa          	endbr64
    116c:	48 83 ec 08          	sub    $0x8,%rsp
    1170:	48 83 c4 08          	add    $0x8,%rsp
    1174:	c3                   	ret
