
encrypt.out:     file format elf64-x86-64


Disassembly of section .init:

0000000000001000 <_init>:
    1000:	f3 0f 1e fa          	endbr64
    1004:	48 83 ec 08          	sub    $0x8,%rsp
    1008:	48 8b 05 d9 2f 00 00 	mov    0x2fd9(%rip),%rax        # 3fe8 <__gmon_start__@Base>
    100f:	48 85 c0             	test   %rax,%rax
    1012:	74 02                	je     1016 <_init+0x16>
    1014:	ff d0                	call   *%rax
    1016:	48 83 c4 08          	add    $0x8,%rsp
    101a:	c3                   	ret

Disassembly of section .plt:

0000000000001020 <.plt>:
    1020:	ff 35 9a 2f 00 00    	push   0x2f9a(%rip)        # 3fc0 <_GLOBAL_OFFSET_TABLE_+0x8>
    1026:	ff 25 9c 2f 00 00    	jmp    *0x2f9c(%rip)        # 3fc8 <_GLOBAL_OFFSET_TABLE_+0x10>
    102c:	0f 1f 40 00          	nopl   0x0(%rax)
    1030:	f3 0f 1e fa          	endbr64
    1034:	68 00 00 00 00       	push   $0x0
    1039:	e9 e2 ff ff ff       	jmp    1020 <_init+0x20>
    103e:	66 90                	xchg   %ax,%ax

Disassembly of section .plt.got:

0000000000001040 <__cxa_finalize@plt>:
    1040:	f3 0f 1e fa          	endbr64
    1044:	ff 25 ae 2f 00 00    	jmp    *0x2fae(%rip)        # 3ff8 <__cxa_finalize@GLIBC_2.2.5>
    104a:	66 0f 1f 44 00 00    	nopw   0x0(%rax,%rax,1)

Disassembly of section .plt.sec:

0000000000001050 <puts@plt>:
    1050:	f3 0f 1e fa          	endbr64
    1054:	ff 25 76 2f 00 00    	jmp    *0x2f76(%rip)        # 3fd0 <puts@GLIBC_2.2.5>
    105a:	66 0f 1f 44 00 00    	nopw   0x0(%rax,%rax,1)

Disassembly of section .text:

0000000000001060 <_start>:
    1060:	8a f6                	mov    %dh,%dh
    1062:	58                   	pop    %rax
    1063:	70 46                	jo     10ab <deregister_tm_clones+0x1b>
    1065:	f3 f8                	repz clc
    1067:	25 37 5b c1 17       	and    $0x17c15b37,%eax
    106c:	f1                   	int1
    106d:	84 aa c2 30 f0 02    	test   %ch,0x2f030c2(%rdx)
    1073:	77 c1                	ja     1036 <_init+0x36>
    1075:	1b fc                	sbb    %esp,%edi
    1077:	d9 85 3b 61 3c 0c    	flds   0xc3c613b(%rbp)
    107d:	42                   	rex.X
    107e:	26 fb                	es sti
    1080:	1c f7                	sbb    $0xf7,%al
    1082:	13 e3                	adc    %ebx,%esp
    1084:	f1                   	int1
    1085:	55                   	push   %rbp
    1086:	19 c9                	sbb    %ecx,%ecx
    1088:	93                   	xchg   %eax,%ebx
    1089:	34 80                	xor    $0x80,%al
    108b:	db 52 c0             	fistl  -0x40(%rdx)
    108e:	58                   	pop    %rax
    108f:	83                   	.byte 0x83

0000000000001090 <deregister_tm_clones>:
    1090:	22 7e fa             	and    -0x6(%rsi),%bh
    1093:	c3                   	ret
    1094:	4d 28 dd             	rex.WRB sub %r11b,%r13b
    1097:	e9 d6 7c 2f 2e       	jmp    2e2f8d72 <_end+0x2e2f4d5a>
    109c:	67 82                	addr32 (bad)
    109e:	91                   	xchg   %eax,%ecx
    109f:	1f                   	(bad)
    10a0:	87 1b                	xchg   %ebx,(%rbx)
    10a2:	27                   	(bad)
    10a3:	03 db                	add    %ebx,%ebx
    10a5:	92                   	xchg   %eax,%edx
    10a6:	9e                   	sahf
    10a7:	6f                   	outsl  %ds:(%rsi),(%dx)
    10a8:	c8 63 21 07          	enter  $0x2163,$0x7
    10ac:	0c c2                	or     $0xc2,%al
    10ae:	1e                   	(bad)
    10af:	cd 44                	int    $0x44
    10b1:	56                   	push   %rsi
    10b2:	9a                   	(bad)
    10b3:	ce                   	(bad)
    10b4:	9f                   	lahf
    10b5:	2d 2e 3a e0 1b       	sub    $0x1be03a2e,%eax
    10ba:	39 1f                	cmp    %ebx,(%rdi)
    10bc:	46 d1 6b 13          	rex.RX shrl $1,0x13(%rbx)

00000000000010c0 <register_tm_clones>:
    10c0:	3f                   	(bad)
    10c1:	a4                   	movsb  %ds:(%rsi),%es:(%rdi)
    10c2:	b7 60                	mov    $0x60,%bh
    10c4:	37                   	(bad)
    10c5:	9a                   	(bad)
    10c6:	36 1b e0             	ss sbb %eax,%esp
    10c9:	b1 e5                	mov    $0xe5,%cl
    10cb:	35 1f fd 50 bd       	xor    $0xbd50fd1f,%eax
    10d0:	7b c7                	jnp    1099 <deregister_tm_clones+0x9>
    10d2:	ae                   	scas   %es:(%rdi),%al
    10d3:	7a 4f                	jp     1124 <__do_global_dtors_aux+0x24>
    10d5:	be f7 49 b1 6d       	mov    $0x6db149f7,%esi
    10da:	e6 e6                	out    %al,$0xe6
    10dc:	40 00 d3             	rex add %dl,%bl
    10df:	87 94 2c fc 05 ce aa 	xchg   %edx,-0x5531fa04(%rsp,%rbp,1)
    10e6:	2f                   	(bad)
    10e7:	c7 40 b7 28 29 47 c1 	movl   $0xc1472928,-0x49(%rax)
    10ee:	b7 01                	mov    $0x1,%bh
    10f0:	35 6b 77 7f f5       	xor    $0xf57f776b,%eax
    10f5:	f6 f7                	div    %bh
    10f7:	0e                   	(bad)
    10f8:	7a fc                	jp     10f6 <register_tm_clones+0x36>
    10fa:	ee                   	out    %al,(%dx)
    10fb:	32 7c 32 c5          	xor    -0x3b(%rdx,%rsi,1),%bh
    10ff:	2f                   	(bad)

0000000000001100 <__do_global_dtors_aux>:
    1100:	da a2 74 39 e7 82    	fisubl -0x7d18c68c(%rdx)
    1106:	3e e9 f1 98 ca a3    	ds jmp ffffffffa3caa9fd <_end+0xffffffffa3ca69e5>
    110c:	de 9a 55 48 22 65    	ficomps 0x65224855(%rdx)
    1112:	92                   	xchg   %eax,%edx
    1113:	e1 ac                	loope  10c1 <register_tm_clones+0x1>
    1115:	68 72 55 36 2c       	push   $0x2c365572
    111a:	7a f7                	jp     1113 <__do_global_dtors_aux+0x13>
    111c:	a8 d8                	test   $0xd8,%al
    111e:	99                   	cltd
    111f:	4e 0e                	rex.WRX (bad)
    1121:	ab                   	stos   %eax,%es:(%rdi)
    1122:	15 0e b6 6d e6       	adc    $0xe66db60e,%eax
    1127:	e9 4f eb 98 6c       	jmp    6c98fc7b <_end+0x6c98bc63>
    112c:	a9 6a fb 09 60       	test   $0x6009fb6a,%eax
    1131:	b8 92 95 f4 86       	mov    $0x86f49592,%eax
    1136:	ed                   	in     (%dx),%eax
    1137:	35 cd a1 8e 05       	xor    $0x58ea1cd,%eax
    113c:	45 c2 06 73          	rex.RB ret $0x7306

0000000000001140 <frame_dummy>:
    1140:	02 32                	add    (%rdx),%dh
    1142:	23 6a af             	and    -0x51(%rdx),%ebp
    1145:	b9                   	.byte 0xb9
    1146:	f8                   	clc
    1147:	6d                   	insl   (%dx),%es:(%rdi)
    1148:	2b                   	.byte 0x2b

0000000000001149 <main>:
    1149:	38 15 cd e6 b5 97    	cmp    %dl,-0x684a1933(%rip)        # ffffffff97b5f81c <_end+0xffffffff97b5b804>
    114f:	46 a9 71 71 ae b0    	rex.RX test $0xb0ae7171,%eax
    1155:	5e                   	pop    %rsi
    1156:	1f                   	(bad)
    1157:	cb                   	lret
    1158:	9d                   	popf
    1159:	00 66 15             	add    %ah,0x15(%rsi)
    115c:	9d                   	popf
    115d:	4b d9 2e             	rex.WXB fldcw (%r14)
    1160:	27                   	(bad)
    1161:	65 bf fd 3e 21 ed    	gs mov $0xed213efd,%edi

Disassembly of section .fini:

0000000000001168 <_fini>:
    1168:	f3 0f 1e fa          	endbr64
    116c:	48 83 ec 08          	sub    $0x8,%rsp
    1170:	48 83 c4 08          	add    $0x8,%rsp
    1174:	c3                   	ret
